---
triple:          'arm64-apple-darwin'
binary-path:     'pset1/Stick_Lengths'
relocations:
  - { offset: 0x1E794, size: 0x8, addend: 0x0, symName: __ZStL8__ioinit, symObjAddr: 0x13F320, symBinAddr: 0x10001C228, symSize: 0x0 }
  - { offset: 0x1F713, size: 0x8, addend: 0x0, symName: __ZSt22__copy_move_backward_aILb1EN9__gnu_cxx17__normal_iteratorIPxNSt9__cxx19986vectorIxSaIxEEEEES7_NSt7__debug6vectorIxS5_EESt26random_access_iterator_tagEN11__gnu_debug14_Safe_iteratorIT1_T2_T3_EET0_SI_RKSH_, symObjAddr: 0xB46C, symBinAddr: 0x10000E9EC, symSize: 0xAD8 }
  - { offset: 0x21211, size: 0x8, addend: 0x0, symName: __ZSt13__adjust_heapIN11__gnu_debug14_Safe_iteratorIN9__gnu_cxx17__normal_iteratorIPxNSt9__cxx19986vectorIxSaIxEEEEENSt7__debug6vectorIxS7_EESt26random_access_iterator_tagEElxNS2_5__ops15_Iter_less_iterEEvT_T0_SI_T1_T2_, symObjAddr: 0x5C20, symBinAddr: 0x1000091A0, symSize: 0x1D60 }
  - { offset: 0x2538B, size: 0x8, addend: 0x0, symName: __ZSt22__copy_move_backward_aILb1EN9__gnu_cxx17__normal_iteratorIPxNSt9__cxx19986vectorIxSaIxEEEEENSt7__debug6vectorIxS5_EESt26random_access_iterator_tagS7_SA_SB_EN11__gnu_debug14_Safe_iteratorIT3_T4_T5_EERKNSD_IT0_T1_T2_EESN_RKSH_, symObjAddr: 0xBF44, symBinAddr: 0x10000F4C4, symSize: 0xEBC }
  - { offset: 0x27AC9, size: 0x8, addend: 0x0, symName: __ZN11__gnu_debug14_Safe_iteratorIN9__gnu_cxx17__normal_iteratorIPxNSt9__cxx19986vectorIxSaIxEEEEENSt7__debug6vectorIxS6_EESt20forward_iterator_tagEC2EOSD_, symObjAddr: 0x5980, symBinAddr: 0x100008F00, symSize: 0x2A0 }
  - { offset: 0x27B0B, size: 0x8, addend: 0x0, symName: __ZN11__gnu_debug14_Safe_iteratorIN9__gnu_cxx17__normal_iteratorIPxNSt9__cxx19986vectorIxSaIxEEEEENSt7__debug6vectorIxS6_EESt20forward_iterator_tagEC2EOSD_, symObjAddr: 0x5980, symBinAddr: 0x100008F00, symSize: 0x2A0 }
  - { offset: 0x28200, size: 0x8, addend: 0x0, symName: __ZSt13move_backwardIN11__gnu_debug14_Safe_iteratorIN9__gnu_cxx17__normal_iteratorIPxNSt9__cxx19986vectorIxSaIxEEEEENSt7__debug6vectorIxS7_EESt26random_access_iterator_tagEESE_ET0_T_SG_SF_, symObjAddr: 0xCE00, symBinAddr: 0x100010380, symSize: 0xA2C }
  - { offset: 0x29A14, size: 0x8, addend: 0x0, symName: __ZNK11__gnu_debug14_Safe_iteratorIN9__gnu_cxx17__normal_iteratorIPxNSt9__cxx19986vectorIxSaIxEEEEENSt7__debug6vectorIxS6_EESt20forward_iterator_tagE14_M_can_advanceElb, symObjAddr: 0x3F70, symBinAddr: 0x1000074F0, symSize: 0xD4 }
  - { offset: 0x29D02, size: 0x8, addend: 0x0, symName: __ZSt21__unguarded_partitionIN11__gnu_debug14_Safe_iteratorIN9__gnu_cxx17__normal_iteratorIPxNSt9__cxx19986vectorIxSaIxEEEEENSt7__debug6vectorIxS7_EESt26random_access_iterator_tagEENS2_5__ops15_Iter_less_iterEET_SH_SH_SH_T0_, symObjAddr: 0x1CB0, symBinAddr: 0x100005230, symSize: 0x22C0 }
  - { offset: 0x2E569, size: 0x8, addend: 0x0, symName: __ZSt22__move_median_to_firstIN11__gnu_debug14_Safe_iteratorIN9__gnu_cxx17__normal_iteratorIPxNSt9__cxx19986vectorIxSaIxEEEEENSt7__debug6vectorIxS7_EESt26random_access_iterator_tagEENS2_5__ops15_Iter_less_iterEEvT_SH_SH_SH_T0_, symObjAddr: 0x4380, symBinAddr: 0x100007900, symSize: 0x1600 }
  - { offset: 0x32626, size: 0x8, addend: 0x0, symName: __ZSt13__heap_selectIN11__gnu_debug14_Safe_iteratorIN9__gnu_cxx17__normal_iteratorIPxNSt9__cxx19986vectorIxSaIxEEEEENSt7__debug6vectorIxS7_EESt26random_access_iterator_tagEENS2_5__ops15_Iter_less_iterEEvT_SH_SH_T0_, symObjAddr: 0x7980, symBinAddr: 0x10000AF00, symSize: 0x1804 }
  - { offset: 0x35D93, size: 0x8, addend: 0x0, symName: __ZSt16__insertion_sortIN11__gnu_debug14_Safe_iteratorIN9__gnu_cxx17__normal_iteratorIPxNSt9__cxx19986vectorIxSaIxEEEEENSt7__debug6vectorIxS7_EESt26random_access_iterator_tagEENS2_5__ops15_Iter_less_iterEEvT_SH_T0_, symObjAddr: 0xD82C, symBinAddr: 0x100010DAC, symSize: 0x1734 }
  - { offset: 0x3973A, size: 0x8, addend: 0x0, symName: __ZNK11__gnu_debug14_Safe_iteratorIN9__gnu_cxx17__normal_iteratorIPxNSt9__cxx19986vectorIxSaIxEEEEENSt7__debug6vectorIxS6_EESt26random_access_iterator_tagE14_M_valid_rangeERKSD_RSt4pairIlNS_19_Distance_precisionEE, symObjAddr: 0x1904, symBinAddr: 0x100004E84, symSize: 0xFC }
  - { offset: 0x39F93, size: 0x8, addend: 0x0, symName: _main, symObjAddr: 0x136E0, symBinAddr: 0x100014B00, symSize: 0x18 }
  - { offset: 0x39FD9, size: 0x8, addend: 0x0, symName: __Z5solvev, symObjAddr: 0x10880, symBinAddr: 0x100013E00, symSize: 0xC2C }
  - { offset: 0x3C360, size: 0x8, addend: 0x0, symName: __ZN9__gnu_cxx32__throw_concurrence_unlock_errorEv, symObjAddr: 0x136A0, symBinAddr: 0x100014AB0, symSize: 0x34 }
  - { offset: 0x3C3C4, size: 0x8, addend: 0x0, symName: __ZN9__gnu_cxx26__concurrence_unlock_errorD0Ev, symObjAddr: 0xA0, symBinAddr: 0x100003620, symSize: 0x40 }
  - { offset: 0x3C3E6, size: 0x8, addend: 0x0, symName: __ZN9__gnu_cxx26__concurrence_unlock_errorD0Ev, symObjAddr: 0xA0, symBinAddr: 0x100003620, symSize: 0x40 }
  - { offset: 0x3C40F, size: 0x8, addend: 0x0, symName: __ZN9__gnu_cxx26__concurrence_unlock_errorD1Ev, symObjAddr: 0x80, symBinAddr: 0x100003600, symSize: 0x20 }
  - { offset: 0x3C44B, size: 0x8, addend: 0x0, symName: __ZN9__gnu_cxx30__throw_concurrence_lock_errorEv, symObjAddr: 0x1366C, symBinAddr: 0x100014A7C, symSize: 0x34 }
  - { offset: 0x3C4AF, size: 0x8, addend: 0x0, symName: __ZN9__gnu_cxx24__concurrence_lock_errorD0Ev, symObjAddr: 0x40, symBinAddr: 0x1000035C0, symSize: 0x40 }
  - { offset: 0x3C4D1, size: 0x8, addend: 0x0, symName: __ZN9__gnu_cxx24__concurrence_lock_errorD0Ev, symObjAddr: 0x40, symBinAddr: 0x1000035C0, symSize: 0x40 }
  - { offset: 0x3C4FA, size: 0x8, addend: 0x0, symName: __ZN9__gnu_cxx24__concurrence_lock_errorD1Ev, symObjAddr: 0x20, symBinAddr: 0x1000035A0, symSize: 0x20 }
  - { offset: 0x3C53A, size: 0x8, addend: 0x0, symName: __ZNK9__gnu_cxx26__concurrence_unlock_error4whatEv, symObjAddr: 0xC, symBinAddr: 0x10000358C, symSize: 0x14 }
  - { offset: 0x3C565, size: 0x8, addend: 0x0, symName: __ZNK9__gnu_cxx24__concurrence_lock_error4whatEv, symObjAddr: 0x0, symBinAddr: 0x100003580, symSize: 0xC }
  - { offset: 0x3C607, size: 0x8, addend: 0x0, symName: __ZZN11__gnu_debug16_Error_formatter5_S_atEPKcjS2_E11__formatter, symObjAddr: 0x13AD0, symBinAddr: 0x10001C008, symSize: 0x0 }
  - { offset: 0x3C6E5, size: 0x8, addend: 0x0, symName: __ZN11__gnu_debugplERKNS_14_Safe_iteratorIN9__gnu_cxx17__normal_iteratorIPxNSt9__cxx19986vectorIxSaIxEEEEENSt7__debug6vectorIxS6_EESt26random_access_iterator_tagEEl.part.0, symObjAddr: 0xE0, symBinAddr: 0x100003660, symSize: 0x1EC }
  - { offset: 0x3C711, size: 0x8, addend: 0x0, symName: __ZN11__gnu_debugplERKNS_14_Safe_iteratorIN9__gnu_cxx17__normal_iteratorIPxNSt9__cxx19986vectorIxSaIxEEEEENSt7__debug6vectorIxS6_EESt26random_access_iterator_tagEEl.part.0, symObjAddr: 0xE0, symBinAddr: 0x100003660, symSize: 0x1EC }
  - { offset: 0x3C987, size: 0x8, addend: 0x0, symName: __ZN11__gnu_debug14_Safe_iteratorIN9__gnu_cxx17__normal_iteratorIPxNSt9__cxx19986vectorIxSaIxEEEEENSt7__debug6vectorIxS6_EESt20forward_iterator_tagEC2ERKSD_.part.0, symObjAddr: 0x2CC, symBinAddr: 0x10000384C, symSize: 0x254 }
  - { offset: 0x3C9B9, size: 0x8, addend: 0x0, symName: __ZN11__gnu_debug14_Safe_iteratorIN9__gnu_cxx17__normal_iteratorIPxNSt9__cxx19986vectorIxSaIxEEEEENSt7__debug6vectorIxS6_EESt20forward_iterator_tagEC2ERKSD_.part.0, symObjAddr: 0x2CC, symBinAddr: 0x10000384C, symSize: 0x254 }
  - { offset: 0x3CCFF, size: 0x8, addend: 0x0, symName: __ZN11__gnu_debugmiERKNS_14_Safe_iteratorIN9__gnu_cxx17__normal_iteratorIPxNSt9__cxx19986vectorIxSaIxEEEEENSt7__debug6vectorIxS6_EESt26random_access_iterator_tagEESF_.part.0, symObjAddr: 0x520, symBinAddr: 0x100003AA0, symSize: 0x240 }
  - { offset: 0x3CD2B, size: 0x8, addend: 0x0, symName: __ZN11__gnu_debugmiERKNS_14_Safe_iteratorIN9__gnu_cxx17__normal_iteratorIPxNSt9__cxx19986vectorIxSaIxEEEEENSt7__debug6vectorIxS6_EESt26random_access_iterator_tagEESF_.part.0, symObjAddr: 0x520, symBinAddr: 0x100003AA0, symSize: 0x240 }
  - { offset: 0x3D07B, size: 0x8, addend: 0x0, symName: __ZSt25__unguarded_linear_insertIN11__gnu_debug14_Safe_iteratorIN9__gnu_cxx17__normal_iteratorIPxNSt9__cxx19986vectorIxSaIxEEEEENSt7__debug6vectorIxS7_EESt26random_access_iterator_tagEENS2_5__ops14_Val_less_iterEEvT_T0_.isra.0, symObjAddr: 0x760, symBinAddr: 0x100003CE0, symSize: 0x100C }
  - { offset: 0x3F274, size: 0x8, addend: 0x0, symName: __ZNK11__gnu_debug14_Safe_iteratorIN9__gnu_cxx17__normal_iteratorIPxNSt9__cxx19986vectorIxSaIxEEEEENSt7__debug6vectorIxS6_EESt20forward_iterator_tagEdeEv, symObjAddr: 0x176C, symBinAddr: 0x100004CEC, symSize: 0x198 }
  - { offset: 0x3F53D, size: 0x8, addend: 0x0, symName: __ZN11__gnu_debugmiERKNS_14_Safe_iteratorIN9__gnu_cxx17__normal_iteratorIPxNSt9__cxx19986vectorIxSaIxEEEEENSt7__debug6vectorIxS6_EESt26random_access_iterator_tagEESF_, symObjAddr: 0x1A00, symBinAddr: 0x100004F80, symSize: 0x2B0 }
  - { offset: 0x3F928, size: 0x8, addend: 0x0, symName: __ZSt9iter_swapIN11__gnu_debug14_Safe_iteratorIN9__gnu_cxx17__normal_iteratorIPxNSt9__cxx19986vectorIxSaIxEEEEENSt7__debug6vectorIxS7_EESt26random_access_iterator_tagEESE_EvT_T0_, symObjAddr: 0x4044, symBinAddr: 0x1000075C4, symSize: 0x33C }
  - { offset: 0x3FF2D, size: 0x8, addend: 0x0, symName: __ZSt16__introsort_loopIN11__gnu_debug14_Safe_iteratorIN9__gnu_cxx17__normal_iteratorIPxNSt9__cxx19986vectorIxSaIxEEEEENSt7__debug6vectorIxS7_EESt26random_access_iterator_tagEElNS2_5__ops15_Iter_less_iterEEvT_SH_T0_T1_.isra.0, symObjAddr: 0x9184, symBinAddr: 0x10000C704, symSize: 0x22E8 }
  - { offset: 0x45524, size: 0x8, addend: 0x0, symName: __ZSt4sortIN11__gnu_debug14_Safe_iteratorIN9__gnu_cxx17__normal_iteratorIPxNSt9__cxx19986vectorIxSaIxEEEEENSt7__debug6vectorIxS7_EESt26random_access_iterator_tagEEEvT_SF_, symObjAddr: 0xEF60, symBinAddr: 0x1000124E0, symSize: 0x1920 }
...
